target datalayout = "e-m:e-p270:32:32-p271:32:32-p272:64:64-i64:64-i128:128-f80:128-n8:16:32:64-S128"
target triple = "x86_64-pc-linux-gnu"

%struct.RelMapFile = type { i32, i32, [64 x %struct.RelMapping], i32 }
%struct.RelMapping = type { i32, i32 }
%union.LWLockPadded = type { %struct.LWLock, [112 x i8] }
%struct.LWLock = type { i16, %struct.pg_atomic_uint32, %struct.proclist_head }
%struct.pg_atomic_uint32 = type { i32 }
%struct.proclist_head = type { i32, i32 }
%struct.xl_relmap_update = type { i32, i32, i32, [0 x i8] }
%struct.RelFileLocator = type { i32, i32, i32 }
%struct.XLogReaderState = type { %struct.XLogReaderRoutine, i64, ptr, i64, i64, i64, i64, i64, i64, i64, i64, ptr, ptr, i64, i8, ptr, ptr, ptr, ptr, ptr, i32, %struct.WALSegmentContext, %struct.WALOpenSegment, i32, i64, i32, i64, i32, i64, i32, ptr, i32, ptr, i8, i8 }
%struct.XLogReaderRoutine = type { ptr, ptr, ptr }
%struct.WALSegmentContext = type { [1024 x i8], i32 }
%struct.WALOpenSegment = type { i32, i64, i32 }
%struct.DecodedXLogRecord = type { i64, i8, ptr, i64, i64, %struct.XLogRecord, i16, i32, ptr, i32, i32, [0 x %struct.DecodedBkpBlock] }
%struct.XLogRecord = type { i32, i32, i64, i8, i8, i32 }
%struct.DecodedBkpBlock = type { i8, %struct.RelFileLocator, i32, i32, i32, i8, i8, i8, ptr, i16, i16, i16, i8, i8, ptr, i16, i16 }

@MainLWLockArray = external global ptr, align 8
@.str.1 = private unnamed_addr constant [12 x i8] c"relmapper.c\00", align 1
@.str.7 = private unnamed_addr constant [51 x i8] c"relmap_redo: wrong size %u in relmap update record\00", align 1
@__func__.relmap_redo = private unnamed_addr constant [12 x i8] c"relmap_redo\00", align 1
@.str.8 = private unnamed_addr constant [32 x i8] c"relmap_redo: unknown op code %u\00", align 1

; Function Attrs: nounwind uwtable
define dso_local void @relmap_redo(ptr noundef %0) #0 {
  %2 = alloca ptr, align 8
  %3 = alloca i8, align 1
  %4 = alloca ptr, align 8
  %5 = alloca %struct.RelMapFile, align 4
  %6 = alloca ptr, align 8
  store ptr %0, ptr %2, align 8
  call void @llvm.lifetime.start.p0(i64 1, ptr %3) #8
  %7 = load ptr, ptr %2, align 8
  %8 = getelementptr inbounds nuw %struct.XLogReaderState, ptr %7, i32 0, i32 11
  %9 = load ptr, ptr %8, align 8
  %10 = getelementptr inbounds nuw %struct.DecodedXLogRecord, ptr %9, i32 0, i32 5
  %11 = getelementptr inbounds nuw %struct.XLogRecord, ptr %10, i32 0, i32 3
  %12 = load i8, ptr %11, align 8
  %13 = zext i8 %12 to i32
  %14 = and i32 %13, -16
  %15 = trunc i32 %14 to i8
  store i8 %15, ptr %3, align 1
  %16 = load i8, ptr %3, align 1
  %17 = zext i8 %16 to i32
  %18 = icmp eq i32 %17, 0
  br i1 %18, label %19, label %68

19:                                               ; preds = %1
  call void @llvm.lifetime.start.p0(i64 8, ptr %4) #8
  %20 = load ptr, ptr %2, align 8
  %21 = getelementptr inbounds nuw %struct.XLogReaderState, ptr %20, i32 0, i32 11
  %22 = load ptr, ptr %21, align 8
  %23 = getelementptr inbounds nuw %struct.DecodedXLogRecord, ptr %22, i32 0, i32 8
  %24 = load ptr, ptr %23, align 8
  store ptr %24, ptr %4, align 8
  call void @llvm.lifetime.start.p0(i64 524, ptr %5) #8
  call void @llvm.lifetime.start.p0(i64 8, ptr %6) #8
  %25 = load ptr, ptr %4, align 8
  %26 = getelementptr inbounds nuw %struct.xl_relmap_update, ptr %25, i32 0, i32 2
  %27 = load i32, ptr %26, align 4
  %28 = sext i32 %27 to i64
  %29 = icmp ne i64 %28, 524
  br i1 %29, label %30, label %44

30:                                               ; preds = %19
  br label %31

31:                                               ; preds = %30
  br i1 true, label %32, label %34

32:                                               ; preds = %31
  %33 = call zeroext i1 @errstart_cold(i32 noundef 23, ptr noundef null) #9
  br i1 %33, label %36, label %41

34:                                               ; preds = %31
  %35 = call zeroext i1 @errstart(i32 noundef 23, ptr noundef null)
  br i1 %35, label %36, label %41

36:                                               ; preds = %34, %32
  %37 = load ptr, ptr %4, align 8
  %38 = getelementptr inbounds nuw %struct.xl_relmap_update, ptr %37, i32 0, i32 2
  %39 = load i32, ptr %38, align 4
  %40 = call i32 (ptr, ...) @errmsg_internal(ptr noundef @.str.7, i32 noundef %39)
  call void @errfinish(ptr noundef @.str.1, i32 noundef 1111, ptr noundef @__func__.relmap_redo)
  br label %41

41:                                               ; preds = %36, %34, %32
  unreachable

42:                                               ; No predecessors!
  br label %43

43:                                               ; preds = %42
  br label %44

44:                                               ; preds = %43, %19
  %45 = load ptr, ptr %4, align 8
  %46 = getelementptr inbounds nuw %struct.xl_relmap_update, ptr %45, i32 0, i32 3
  %47 = getelementptr inbounds [0 x i8], ptr %46, i64 0, i64 0
  call void @llvm.memcpy.p0.p0.i64(ptr align 4 %5, ptr align 4 %47, i64 524, i1 false)
  %48 = load ptr, ptr %4, align 8
  %49 = getelementptr inbounds nuw %struct.xl_relmap_update, ptr %48, i32 0, i32 0
  %50 = load i32, ptr %49, align 4
  %51 = load ptr, ptr %4, align 8
  %52 = getelementptr inbounds nuw %struct.xl_relmap_update, ptr %51, i32 0, i32 1
  %53 = load i32, ptr %52, align 4
  %54 = call ptr @GetDatabasePath(i32 noundef %50, i32 noundef %53)
  store ptr %54, ptr %6, align 8
  %55 = load ptr, ptr @MainLWLockArray, align 8
  %56 = getelementptr inbounds %union.LWLockPadded, ptr %55, i64 25
  %57 = call zeroext i1 @LWLockAcquire(ptr noundef %56, i32 noundef 0)
  %58 = load ptr, ptr %4, align 8
  %59 = getelementptr inbounds nuw %struct.xl_relmap_update, ptr %58, i32 0, i32 0
  %60 = load i32, ptr %59, align 4
  %61 = load ptr, ptr %4, align 8
  %62 = getelementptr inbounds nuw %struct.xl_relmap_update, ptr %61, i32 0, i32 1
  %63 = load i32, ptr %62, align 4
  %64 = load ptr, ptr %6, align 8
  call void @write_relmap_file(ptr noundef %5, i1 noundef zeroext false, i1 noundef zeroext true, i1 noundef zeroext false, i32 noundef %60, i32 noundef %63, ptr noundef %64)
  %65 = load ptr, ptr @MainLWLockArray, align 8
  %66 = getelementptr inbounds %union.LWLockPadded, ptr %65, i64 25
  call void @LWLockRelease(ptr noundef %66)
  %67 = load ptr, ptr %6, align 8
  call void @pfree(ptr noundef %67)
  call void @llvm.lifetime.end.p0(i64 8, ptr %6) #8
  call void @llvm.lifetime.end.p0(i64 524, ptr %5) #8
  call void @llvm.lifetime.end.p0(i64 8, ptr %4) #8
  br label %81

68:                                               ; preds = %1
  br label %69

69:                                               ; preds = %68
  br i1 true, label %70, label %72

70:                                               ; preds = %69
  %71 = call zeroext i1 @errstart_cold(i32 noundef 23, ptr noundef null) #9
  br i1 %71, label %74, label %78

72:                                               ; preds = %69
  %73 = call zeroext i1 @errstart(i32 noundef 23, ptr noundef null)
  br i1 %73, label %74, label %78

74:                                               ; preds = %72, %70
  %75 = load i8, ptr %3, align 1
  %76 = zext i8 %75 to i32
  %77 = call i32 (ptr, ...) @errmsg_internal(ptr noundef @.str.8, i32 noundef %76)
  call void @errfinish(ptr noundef @.str.1, i32 noundef 1140, ptr noundef @__func__.relmap_redo)
  br label %78

78:                                               ; preds = %74, %72, %70
  unreachable

79:                                               ; No predecessors!
  br label %80

80:                                               ; preds = %79
  br label %81

81:                                               ; preds = %80, %44
  call void @llvm.lifetime.end.p0(i64 1, ptr %3) #8
  ret void
}