; Function Attrs: nounwind uwtable
define dso_local void @relmap_redo(ptr noundef readonly captures(none) %0) local_unnamed_addr #2 {
  %2 = alloca %struct.RelMapFile, align 4
  %3 = getelementptr inbounds nuw i8, ptr %0, i64 104
  %4 = load ptr, ptr %3, align 8
  %5 = getelementptr inbounds nuw i8, ptr %4, i64 56
  %6 = load i8, ptr %5, align 8
  %7 = and i8 %6, -16
  %8 = icmp eq i8 %7, 0
  br i1 %8, label %9, label %31

9:                                                ; preds = %1
  %10 = getelementptr inbounds nuw i8, ptr %4, i64 72
  %11 = load ptr, ptr %10, align 8
  call void @llvm.lifetime.start.p0(i64 524, ptr nonnull %2) #12
  %12 = getelementptr inbounds nuw i8, ptr %11, i64 8
  %13 = load i32, ptr %12, align 4
  %.not = icmp eq i32 %13, 524
  br i1 %.not, label %18, label %14

14:                                               ; preds = %9
  %15 = tail call zeroext i1 @errstart_cold(i32 noundef 23, ptr noundef null) #13
  tail call void @llvm.assume(i1 %15)
  %16 = load i32, ptr %12, align 4
  %17 = tail call i32 (ptr, ...) @errmsg_internal(ptr noundef nonnull @.str.7, i32 noundef %16) #12
  tail call void @errfinish(ptr noundef nonnull @.str.1, i32 noundef 1111, ptr noundef nonnull @__func__.relmap_redo) #12
  unreachable

18:                                               ; preds = %9
  %19 = getelementptr inbounds nuw i8, ptr %11, i64 12
  call void @llvm.memcpy.p0.p0.i64(ptr noundef nonnull align 4 dereferenceable(524) %2, ptr noundef nonnull align 4 dereferenceable(524) %19, i64 524, i1 false)
  %20 = load i32, ptr %11, align 4
  %21 = getelementptr inbounds nuw i8, ptr %11, i64 4
  %22 = load i32, ptr %21, align 4
  %23 = tail call ptr @GetDatabasePath(i32 noundef %20, i32 noundef %22) #12
  %24 = load ptr, ptr @MainLWLockArray, align 8
  %25 = getelementptr inbounds nuw i8, ptr %24, i64 3200
  %26 = tail call zeroext i1 @LWLockAcquire(ptr noundef nonnull %25, i32 noundef 0) #12
  %27 = load i32, ptr %11, align 4
  %28 = load i32, ptr %21, align 4
  call fastcc void @write_relmap_file(ptr noundef nonnull %2, i1 noundef zeroext false, i1 noundef zeroext true, i1 noundef zeroext false, i32 noundef %27, i32 noundef %28, ptr noundef %23)
  %29 = load ptr, ptr @MainLWLockArray, align 8
  %30 = getelementptr inbounds nuw i8, ptr %29, i64 3200
  call void @LWLockRelease(ptr noundef nonnull %30) #12
  call void @pfree(ptr noundef %23) #12
  call void @llvm.lifetime.end.p0(i64 524, ptr nonnull %2) #12
  ret void

31:                                               ; preds = %1
  %32 = zext i8 %7 to i32
  %33 = tail call zeroext i1 @errstart_cold(i32 noundef 23, ptr noundef null) #13
  tail call void @llvm.assume(i1 %33)
  %34 = tail call i32 (ptr, ...) @errmsg_internal(ptr noundef nonnull @.str.8, i32 noundef %32) #12
  tail call void @errfinish(ptr noundef nonnull @.str.1, i32 noundef 1140, ptr noundef nonnull @__func__.relmap_redo) #12
  unreachable
}